target datalayout = "e-m:e-p270:32:32-p271:32:32-p272:64:64-i64:64-i128:128-f80:128-n8:16:32:64-S128"
target triple = "x86_64-pc-linux-gnu"

%struct.bio_st = type { ptr, ptr, ptr, ptr, ptr, i32, i32, i32, i32, i32, ptr, ptr, ptr, %struct.CRYPTO_REF_COUNT, i64, i64, %struct.crypto_ex_data_st }
%struct.CRYPTO_REF_COUNT = type { i32 }
%struct.crypto_ex_data_st = type { ptr, ptr }
%struct.bio_bio_st = type { ptr, i32, i64, i64, i64, ptr, i64 }

; Function Attrs: nounwind uwtable
define internal i32 @bio_read(ptr noundef %0, ptr noundef %1, i32 noundef %2) #0 {
  %4 = alloca i32, align 4
  %5 = alloca ptr, align 8
  %6 = alloca ptr, align 8
  %7 = alloca i32, align 4
  %8 = alloca i64, align 8
  %9 = alloca i64, align 8
  %10 = alloca ptr, align 8
  %11 = alloca ptr, align 8
  %12 = alloca i32, align 4
  %13 = alloca i64, align 8
  store ptr %0, ptr %5, align 8, !tbaa !10
  store ptr %1, ptr %6, align 8, !tbaa !26
  store i32 %2, ptr %7, align 4, !tbaa !12
  call void @llvm.lifetime.start.p0(i64 8, ptr %8) #5
  %14 = load i32, ptr %7, align 4, !tbaa !12
  %15 = sext i32 %14 to i64
  store i64 %15, ptr %8, align 8, !tbaa !8
  call void @llvm.lifetime.start.p0(i64 8, ptr %9) #5
  call void @llvm.lifetime.start.p0(i64 8, ptr %10) #5
  call void @llvm.lifetime.start.p0(i64 8, ptr %11) #5
  %16 = load ptr, ptr %5, align 8, !tbaa !10
  call void @BIO_clear_flags(ptr noundef %16, i32 noundef 15)
  %17 = load ptr, ptr %5, align 8, !tbaa !10
  %18 = getelementptr inbounds nuw %struct.bio_st, ptr %17, i32 0, i32 5
  %19 = load i32, ptr %18, align 8, !tbaa !16
  %20 = icmp ne i32 %19, 0
  br i1 %20, label %22, label %21

21:                                               ; preds = %3
  store i32 0, ptr %4, align 4
  store i32 1, ptr %12, align 4
  br label %152

22:                                               ; preds = %3
  %23 = load ptr, ptr %5, align 8, !tbaa !10
  %24 = getelementptr inbounds nuw %struct.bio_st, ptr %23, i32 0, i32 10
  %25 = load ptr, ptr %24, align 8, !tbaa !27
  store ptr %25, ptr %10, align 8, !tbaa !28
  %26 = load ptr, ptr %10, align 8, !tbaa !28
  %27 = getelementptr inbounds nuw %struct.bio_bio_st, ptr %26, i32 0, i32 0
  %28 = load ptr, ptr %27, align 8, !tbaa !39
  %29 = getelementptr inbounds nuw %struct.bio_st, ptr %28, i32 0, i32 10
  %30 = load ptr, ptr %29, align 8, !tbaa !27
  store ptr %30, ptr %11, align 8, !tbaa !28
  %31 = load ptr, ptr %11, align 8, !tbaa !28
  %32 = getelementptr inbounds nuw %struct.bio_bio_st, ptr %31, i32 0, i32 6
  store i64 0, ptr %32, align 8, !tbaa !30
  %33 = load ptr, ptr %6, align 8, !tbaa !26
  %34 = icmp eq ptr %33, null
  br i1 %34, label %38, label %35

35:                                               ; preds = %22
  %36 = load i64, ptr %8, align 8, !tbaa !8
  %37 = icmp eq i64 %36, 0
  br i1 %37, label %38, label %39

38:                                               ; preds = %35, %22
  store i32 0, ptr %4, align 4
  store i32 1, ptr %12, align 4
  br label %152

39:                                               ; preds = %35
  %40 = load ptr, ptr %11, align 8, !tbaa !28
  %41 = getelementptr inbounds nuw %struct.bio_bio_st, ptr %40, i32 0, i32 2
  %42 = load i64, ptr %41, align 8, !tbaa !33
  %43 = icmp eq i64 %42, 0
  br i1 %43, label %44, label %68

44:                                               ; preds = %39
  %45 = load ptr, ptr %11, align 8, !tbaa !28
  %46 = getelementptr inbounds nuw %struct.bio_bio_st, ptr %45, i32 0, i32 1
  %47 = load i32, ptr %46, align 8, !tbaa !32
  %48 = icmp ne i32 %47, 0
  br i1 %48, label %49, label %50

49:                                               ; preds = %44
  store i32 0, ptr %4, align 4
  store i32 1, ptr %12, align 4
  br label %152

50:                                               ; preds = %44
  %51 = load ptr, ptr %5, align 8, !tbaa !10
  call void @BIO_set_flags(ptr noundef %51, i32 noundef 9)
  %52 = load i64, ptr %8, align 8, !tbaa !8
  %53 = load ptr, ptr %11, align 8, !tbaa !28
  %54 = getelementptr inbounds nuw %struct.bio_bio_st, ptr %53, i32 0, i32 4
  %55 = load i64, ptr %54, align 8, !tbaa !34
  %56 = icmp ule i64 %52, %55
  br i1 %56, label %57, label %61

57:                                               ; preds = %50
  %58 = load i64, ptr %8, align 8, !tbaa !8
  %59 = load ptr, ptr %11, align 8, !tbaa !28
  %60 = getelementptr inbounds nuw %struct.bio_bio_st, ptr %59, i32 0, i32 6
  store i64 %58, ptr %60, align 8, !tbaa !30
  br label %67

61:                                               ; preds = %50
  %62 = load ptr, ptr %11, align 8, !tbaa !28
  %63 = getelementptr inbounds nuw %struct.bio_bio_st, ptr %62, i32 0, i32 4
  %64 = load i64, ptr %63, align 8, !tbaa !34
  %65 = load ptr, ptr %11, align 8, !tbaa !28
  %66 = getelementptr inbounds nuw %struct.bio_bio_st, ptr %65, i32 0, i32 6
  store i64 %64, ptr %66, align 8, !tbaa !30
  br label %67

67:                                               ; preds = %61, %57
  store i32 -1, ptr %4, align 4
  store i32 1, ptr %12, align 4
  br label %152

68:                                               ; preds = %39
  %69 = load ptr, ptr %11, align 8, !tbaa !28
  %70 = getelementptr inbounds nuw %struct.bio_bio_st, ptr %69, i32 0, i32 2
  %71 = load i64, ptr %70, align 8, !tbaa !33
  %72 = load i64, ptr %8, align 8, !tbaa !8
  %73 = icmp ult i64 %71, %72
  br i1 %73, label %74, label %78

74:                                               ; preds = %68
  %75 = load ptr, ptr %11, align 8, !tbaa !28
  %76 = getelementptr inbounds nuw %struct.bio_bio_st, ptr %75, i32 0, i32 2
  %77 = load i64, ptr %76, align 8, !tbaa !33
  store i64 %77, ptr %8, align 8, !tbaa !8
  br label %78

78:                                               ; preds = %74, %68
  %79 = load i64, ptr %8, align 8, !tbaa !8
  store i64 %79, ptr %9, align 8, !tbaa !8
  br label %80

80:                                               ; preds = %146, %78
  call void @llvm.lifetime.start.p0(i64 8, ptr %13) #5
  %81 = load ptr, ptr %11, align 8, !tbaa !28
  %82 = getelementptr inbounds nuw %struct.bio_bio_st, ptr %81, i32 0, i32 3
  %83 = load i64, ptr %82, align 8, !tbaa !35
  %84 = load i64, ptr %9, align 8, !tbaa !8
  %85 = add i64 %83, %84
  %86 = load ptr, ptr %11, align 8, !tbaa !28
  %87 = getelementptr inbounds nuw %struct.bio_bio_st, ptr %86, i32 0, i32 4
  %88 = load i64, ptr %87, align 8, !tbaa !34
  %89 = icmp ule i64 %85, %88
  br i1 %89, label %90, label %92

90:                                               ; preds = %80
  %91 = load i64, ptr %9, align 8, !tbaa !8
  store i64 %91, ptr %13, align 8, !tbaa !8
  br label %100

92:                                               ; preds = %80
  %93 = load ptr, ptr %11, align 8, !tbaa !28
  %94 = getelementptr inbounds nuw %struct.bio_bio_st, ptr %93, i32 0, i32 4
  %95 = load i64, ptr %94, align 8, !tbaa !34
  %96 = load ptr, ptr %11, align 8, !tbaa !28
  %97 = getelementptr inbounds nuw %struct.bio_bio_st, ptr %96, i32 0, i32 3
  %98 = load i64, ptr %97, align 8, !tbaa !35
  %99 = sub i64 %95, %98
  store i64 %99, ptr %13, align 8, !tbaa !8
  br label %100

100:                                              ; preds = %92, %90
  %101 = load ptr, ptr %6, align 8, !tbaa !26
  %102 = load ptr, ptr %11, align 8, !tbaa !28
  %103 = getelementptr inbounds nuw %struct.bio_bio_st, ptr %102, i32 0, i32 5
  %104 = load ptr, ptr %103, align 8, !tbaa !36
  %105 = load ptr, ptr %11, align 8, !tbaa !28
  %106 = getelementptr inbounds nuw %struct.bio_bio_st, ptr %105, i32 0, i32 3
  %107 = load i64, ptr %106, align 8, !tbaa !35
  %108 = getelementptr inbounds nuw i8, ptr %104, i64 %107
  %109 = load i64, ptr %13, align 8, !tbaa !8
  call void @llvm.memcpy.p0.p0.i64(ptr align 1 %101, ptr align 1 %108, i64 %109, i1 false)
  %110 = load i64, ptr %13, align 8, !tbaa !8
  %111 = load ptr, ptr %11, align 8, !tbaa !28
  %112 = getelementptr inbounds nuw %struct.bio_bio_st, ptr %111, i32 0, i32 2
  %113 = load i64, ptr %112, align 8, !tbaa !33
  %114 = sub i64 %113, %110
  store i64 %114, ptr %112, align 8, !tbaa !33
  %115 = load ptr, ptr %11, align 8, !tbaa !28
  %116 = getelementptr inbounds nuw %struct.bio_bio_st, ptr %115, i32 0, i32 2
  %117 = load i64, ptr %116, align 8, !tbaa !33
  %118 = icmp ne i64 %117, 0
  br i1 %118, label %119, label %139

119:                                              ; preds = %100
  %120 = load i64, ptr %13, align 8, !tbaa !8
  %121 = load ptr, ptr %11, align 8, !tbaa !28
  %122 = getelementptr inbounds nuw %struct.bio_bio_st, ptr %121, i32 0, i32 3
  %123 = load i64, ptr %122, align 8, !tbaa !35
  %124 = add i64 %123, %120
  store i64 %124, ptr %122, align 8, !tbaa !35
  %125 = load ptr, ptr %11, align 8, !tbaa !28
  %126 = getelementptr inbounds nuw %struct.bio_bio_st, ptr %125, i32 0, i32 3
  %127 = load i64, ptr %126, align 8, !tbaa !35
  %128 = load ptr, ptr %11, align 8, !tbaa !28
  %129 = getelementptr inbounds nuw %struct.bio_bio_st, ptr %128, i32 0, i32 4
  %130 = load i64, ptr %129, align 8, !tbaa !34
  %131 = icmp eq i64 %127, %130
  br i1 %131, label %132, label %135

132:                                              ; preds = %119
  %133 = load ptr, ptr %11, align 8, !tbaa !28
  %134 = getelementptr inbounds nuw %struct.bio_bio_st, ptr %133, i32 0, i32 3
  store i64 0, ptr %134, align 8, !tbaa !35
  br label %135

135:                                              ; preds = %132, %119
  %136 = load i64, ptr %13, align 8, !tbaa !8
  %137 = load ptr, ptr %6, align 8, !tbaa !26
  %138 = getelementptr inbounds nuw i8, ptr %137, i64 %136
  store ptr %138, ptr %6, align 8, !tbaa !26
  br label %142

139:                                              ; preds = %100
  %140 = load ptr, ptr %11, align 8, !tbaa !28
  %141 = getelementptr inbounds nuw %struct.bio_bio_st, ptr %140, i32 0, i32 3
  store i64 0, ptr %141, align 8, !tbaa !35
  br label %142

142:                                              ; preds = %139, %135
  %143 = load i64, ptr %13, align 8, !tbaa !8
  %144 = load i64, ptr %9, align 8, !tbaa !8
  %145 = sub i64 %144, %143
  store i64 %145, ptr %9, align 8, !tbaa !8
  call void @llvm.lifetime.end.p0(i64 8, ptr %13) #5
  br label %146

146:                                              ; preds = %142
  %147 = load i64, ptr %9, align 8, !tbaa !8
  %148 = icmp ne i64 %147, 0
  br i1 %148, label %80, label %149, !llvm.loop !40

149:                                              ; preds = %146
  %150 = load i64, ptr %8, align 8, !tbaa !8
  %151 = trunc i64 %150 to i32
  store i32 %151, ptr %4, align 4
  store i32 1, ptr %12, align 4
  br label %152

152:                                              ; preds = %149, %67, %49, %38, %21
  call void @llvm.lifetime.end.p0(i64 8, ptr %11) #5
  call void @llvm.lifetime.end.p0(i64 8, ptr %10) #5
  call void @llvm.lifetime.end.p0(i64 8, ptr %9) #5
  call void @llvm.lifetime.end.p0(i64 8, ptr %8) #5
  %153 = load i32, ptr %4, align 4
  ret i32 %153
}