; Function Attrs: nounwind uwtable
define internal i32 @bio_read(ptr noundef %0, ptr noundef writeonly captures(address_is_null) %1, i32 noundef %2) #1 {
  %4 = sext i32 %2 to i64
  tail call void @BIO_clear_flags(ptr noundef %0, i32 noundef 15) #8
  %5 = getelementptr inbounds nuw i8, ptr %0, i64 40
  %6 = load i32, ptr %5, align 8, !tbaa !8
  %.not = icmp eq i32 %6, 0
  br i1 %.not, label %49, label %7

7:                                                ; preds = %3
  %8 = getelementptr inbounds nuw i8, ptr %0, i64 64
  %9 = load ptr, ptr %8, align 8, !tbaa !20
  %10 = load ptr, ptr %9, align 8, !tbaa !30
  %11 = getelementptr inbounds nuw i8, ptr %10, i64 64
  %12 = load ptr, ptr %11, align 8, !tbaa !20
  %13 = getelementptr inbounds nuw i8, ptr %12, i64 48
  store i64 0, ptr %13, align 8, !tbaa !21
  %14 = icmp eq ptr %1, null
  %15 = icmp eq i32 %2, 0
  %or.cond = or i1 %14, %15
  br i1 %or.cond, label %49, label %16

16:                                               ; preds = %7
  %17 = getelementptr inbounds nuw i8, ptr %12, i64 16
  %18 = load i64, ptr %17, align 8, !tbaa !24
  %19 = icmp eq i64 %18, 0
  br i1 %19, label %20, label %26

20:                                               ; preds = %16
  %21 = getelementptr inbounds nuw i8, ptr %12, i64 8
  %22 = load i32, ptr %21, align 8, !tbaa !23
  %.not60 = icmp eq i32 %22, 0
  br i1 %.not60, label %23, label %49

23:                                               ; preds = %20
  tail call void @BIO_set_flags(ptr noundef nonnull %0, i32 noundef 9) #8
  %24 = getelementptr inbounds nuw i8, ptr %12, i64 32
  %25 = load i64, ptr %24, align 8, !tbaa !25
  %. = tail call i64 @llvm.umin.i64(i64 %25, i64 %4)
  store i64 %., ptr %13, align 8, !tbaa !21
  br label %49

26:                                               ; preds = %16
  %spec.select = tail call i64 @llvm.umin.i64(i64 %18, i64 %4)
  %27 = getelementptr inbounds nuw i8, ptr %12, i64 24
  %28 = getelementptr inbounds nuw i8, ptr %12, i64 32
  %29 = getelementptr inbounds nuw i8, ptr %12, i64 40
  %.pre = load i64, ptr %27, align 8, !tbaa !26
  br label %30

30:                                               ; preds = %45, %26
  %31 = phi i64 [ %.pre, %26 ], [ %spec.store.select.sink, %45 ]
  %.049 = phi i64 [ %spec.select, %26 ], [ %46, %45 ]
  %.048 = phi ptr [ %1, %26 ], [ %.1, %45 ]
  %32 = add i64 %31, %.049
  %33 = load i64, ptr %28, align 8, !tbaa !25
  %.not57 = icmp ugt i64 %32, %33
  %34 = sub i64 %33, %31
  %.0 = select i1 %.not57, i64 %34, i64 %.049
  %35 = load ptr, ptr %29, align 8, !tbaa !27
  %36 = getelementptr inbounds nuw i8, ptr %35, i64 %31
  tail call void @llvm.memcpy.p0.p0.i64(ptr align 1 %.048, ptr align 1 %36, i64 %.0, i1 false)
  %37 = load i64, ptr %17, align 8, !tbaa !24
  %38 = sub i64 %37, %.0
  store i64 %38, ptr %17, align 8, !tbaa !24
  %.not58 = icmp eq i64 %37, %.0
  br i1 %.not58, label %45, label %39

39:                                               ; preds = %30
  %40 = load i64, ptr %27, align 8, !tbaa !26
  %41 = add i64 %40, %.0
  %42 = load i64, ptr %28, align 8, !tbaa !25
  %43 = icmp eq i64 %41, %42
  %spec.store.select = select i1 %43, i64 0, i64 %41
  %44 = getelementptr inbounds nuw i8, ptr %.048, i64 %.0
  br label %45

45:                                               ; preds = %30, %39
  %spec.store.select.sink = phi i64 [ %spec.store.select, %39 ], [ 0, %30 ]
  %.1 = phi ptr [ %44, %39 ], [ %.048, %30 ]
  store i64 %spec.store.select.sink, ptr %27, align 8
  %46 = sub i64 %.049, %.0
  %.not59 = icmp eq i64 %46, 0
  br i1 %.not59, label %47, label %30, !llvm.loop !31

47:                                               ; preds = %45
  %48 = trunc i64 %spec.select to i32
  br label %49

49:                                               ; preds = %20, %7, %3, %47, %23
  %.047 = phi i32 [ -1, %23 ], [ %48, %47 ], [ 0, %3 ], [ 0, %7 ], [ 0, %20 ]
  ret i32 %.047
}